target datalayout = "e-m:e-p270:32:32-p271:32:32-p272:64:64-i64:64-i128:128-f80:128-n8:16:32:64-S128"
target triple = "x86_64-pc-linux-gnu"

%struct._php_stream_bucket_brigade = type { ptr, ptr }
%struct._php_stream_filter = type { ptr, %struct._zval_struct, ptr, ptr, i32, ptr, %struct._php_stream_bucket_brigade, ptr }
%struct._zval_struct = type { %union._zend_value, %union.anon, %union.anon.3 }
%union._zend_value = type { i64 }
%union.anon = type { i32 }
%union.anon.3 = type { i32 }
%struct._php_convert_filter = type { ptr, i32, ptr, [128 x i8], i64 }
%struct._php_conv = type { ptr, ptr }

; Function Attrs: nounwind uwtable
define internal void @php_convert_filter_dtor(ptr noundef %0) #0 {
  %2 = alloca ptr, align 8
  store ptr %0, ptr %2, align 8
  %3 = load ptr, ptr %2, align 8
  %4 = getelementptr inbounds %struct._php_convert_filter, ptr %3, i32 0, i32 0
  %5 = load ptr, ptr %4, align 8
  %6 = icmp ne ptr %5, null
  br i1 %6, label %7, label %29

7:                                                ; preds = %1
  %8 = load ptr, ptr %2, align 8
  %9 = getelementptr inbounds %struct._php_convert_filter, ptr %8, i32 0, i32 0
  %10 = load ptr, ptr %9, align 8
  %11 = getelementptr inbounds %struct._php_conv, ptr %10, i32 0, i32 1
  %12 = load ptr, ptr %11, align 8
  %13 = load ptr, ptr %2, align 8
  %14 = getelementptr inbounds %struct._php_convert_filter, ptr %13, i32 0, i32 0
  %15 = load ptr, ptr %14, align 8
  call void %12(ptr noundef %15)
  %16 = load ptr, ptr %2, align 8
  %17 = getelementptr inbounds %struct._php_convert_filter, ptr %16, i32 0, i32 1
  %18 = load i32, ptr %17, align 8
  %19 = icmp ne i32 %18, 0
  br i1 %19, label %20, label %24

20:                                               ; preds = %7
  %21 = load ptr, ptr %2, align 8
  %22 = getelementptr inbounds %struct._php_convert_filter, ptr %21, i32 0, i32 0
  %23 = load ptr, ptr %22, align 8
  call void @free(ptr noundef %23) #11
  br label %28

24:                                               ; preds = %7
  %25 = load ptr, ptr %2, align 8
  %26 = getelementptr inbounds %struct._php_convert_filter, ptr %25, i32 0, i32 0
  %27 = load ptr, ptr %26, align 8
  call void @_efree(ptr noundef %27)
  br label %28

28:                                               ; preds = %24, %20
  br label %29

29:                                               ; preds = %28, %1
  %30 = load ptr, ptr %2, align 8
  %31 = getelementptr inbounds %struct._php_convert_filter, ptr %30, i32 0, i32 2
  %32 = load ptr, ptr %31, align 8
  %33 = icmp ne ptr %32, null
  br i1 %33, label %34, label %48

34:                                               ; preds = %29
  %35 = load ptr, ptr %2, align 8
  %36 = getelementptr inbounds %struct._php_convert_filter, ptr %35, i32 0, i32 1
  %37 = load i32, ptr %36, align 8
  %38 = icmp ne i32 %37, 0
  br i1 %38, label %39, label %43

39:                                               ; preds = %34
  %40 = load ptr, ptr %2, align 8
  %41 = getelementptr inbounds %struct._php_convert_filter, ptr %40, i32 0, i32 2
  %42 = load ptr, ptr %41, align 8
  call void @free(ptr noundef %42) #11
  br label %47

43:                                               ; preds = %34
  %44 = load ptr, ptr %2, align 8
  %45 = getelementptr inbounds %struct._php_convert_filter, ptr %44, i32 0, i32 2
  %46 = load ptr, ptr %45, align 8
  call void @_efree(ptr noundef %46)
  br label %47

47:                                               ; preds = %43, %39
  br label %48

48:                                               ; preds = %47, %29
  ret void
}

; Function Attrs: nounwind uwtable
define internal void @strfilter_convert_dtor(ptr noundef %0) #0 {
  %2 = alloca ptr, align 8
  store ptr %0, ptr %2, align 8
  %3 = load ptr, ptr %2, align 8
  %4 = getelementptr inbounds %struct._php_stream_filter, ptr %3, i32 0, i32 1
  %5 = getelementptr inbounds %struct._zval_struct, ptr %4, i32 0, i32 0
  %6 = load ptr, ptr %5, align 8
  call void @php_convert_filter_dtor(ptr noundef %6)
  %7 = load ptr, ptr %2, align 8
  %8 = getelementptr inbounds %struct._php_stream_filter, ptr %7, i32 0, i32 1
  %9 = getelementptr inbounds %struct._zval_struct, ptr %8, i32 0, i32 0
  %10 = load ptr, ptr %9, align 8
  %11 = getelementptr inbounds %struct._php_convert_filter, ptr %10, i32 0, i32 1
  %12 = load i32, ptr %11, align 8
  %13 = icmp ne i32 %12, 0
  br i1 %13, label %14, label %19

14:                                               ; preds = %1
  %15 = load ptr, ptr %2, align 8
  %16 = getelementptr inbounds %struct._php_stream_filter, ptr %15, i32 0, i32 1
  %17 = getelementptr inbounds %struct._zval_struct, ptr %16, i32 0, i32 0
  %18 = load ptr, ptr %17, align 8
  call void @free(ptr noundef %18) #11
  br label %24

19:                                               ; preds = %1
  %20 = load ptr, ptr %2, align 8
  %21 = getelementptr inbounds %struct._php_stream_filter, ptr %20, i32 0, i32 1
  %22 = getelementptr inbounds %struct._zval_struct, ptr %21, i32 0, i32 0
  %23 = load ptr, ptr %22, align 8
  call void @_efree(ptr noundef %23)
  br label %24

24:                                               ; preds = %19, %14
  ret void
}