; Function Attrs: nounwind uwtable
define internal void @strfilter_convert_dtor(ptr nocapture noundef readonly %0) #0 {
  %2 = getelementptr inbounds i8, ptr %0, i64 8
  %3 = load ptr, ptr %2, align 8
  %4 = load ptr, ptr %3, align 8
  %.not.i = icmp eq ptr %4, null
  br i1 %.not.i, label %13, label %5

5:                                                ; preds = %1
  %6 = getelementptr inbounds i8, ptr %4, i64 8
  %7 = load ptr, ptr %6, align 8
  tail call void %7(ptr noundef nonnull %4) #18
  %8 = getelementptr inbounds i8, ptr %3, i64 8
  %9 = load i32, ptr %8, align 8
  %.not11.i = icmp eq i32 %9, 0
  %10 = load ptr, ptr %3, align 8
  br i1 %.not11.i, label %12, label %11

11:                                               ; preds = %5
  tail call void @free(ptr noundef %10) #18
  br label %13

12:                                               ; preds = %5
  tail call void @_efree(ptr noundef %10) #18
  br label %13

13:                                               ; preds = %12, %11, %1
  %14 = getelementptr inbounds i8, ptr %3, i64 16
  %15 = load ptr, ptr %14, align 8
  %.not12.i = icmp eq ptr %15, null
  br i1 %.not12.i, label %php_convert_filter_dtor.exit, label %16

16:                                               ; preds = %13
  %17 = getelementptr inbounds i8, ptr %3, i64 8
  %18 = load i32, ptr %17, align 8
  %.not13.i = icmp eq i32 %18, 0
  br i1 %.not13.i, label %20, label %19

19:                                               ; preds = %16
  tail call void @free(ptr noundef nonnull %15) #18
  br label %php_convert_filter_dtor.exit

20:                                               ; preds = %16
  tail call void @_efree(ptr noundef nonnull %15) #18
  br label %php_convert_filter_dtor.exit

php_convert_filter_dtor.exit:                     ; preds = %13, %19, %20
  %21 = load ptr, ptr %2, align 8
  %22 = getelementptr inbounds i8, ptr %21, i64 8
  %23 = load i32, ptr %22, align 8
  %.not = icmp eq i32 %23, 0
  br i1 %.not, label %25, label %24

24:                                               ; preds = %php_convert_filter_dtor.exit
  tail call void @free(ptr noundef nonnull %21) #18
  br label %26

25:                                               ; preds = %php_convert_filter_dtor.exit
  tail call void @_efree(ptr noundef nonnull %21) #18
  br label %26

26:                                               ; preds = %25, %24
  ret void
}